target datalayout = "e-m:e-p270:32:32-p271:32:32-p272:64:64-i64:64-i128:128-f80:128-n8:16:32:64-S128"
target triple = "x86_64-pc-linux-gnu"

%struct.pathspec = type { i32, i8, i32, i32, ptr }

; Function Attrs: nounwind uwtable
define internal i32 @match_pathspec_with_flags(ptr noundef %0, ptr noundef %1, ptr noundef %2, i32 noundef %3, i32 noundef %4, ptr noundef %5, i32 noundef %6) #0 {
  %8 = alloca i32, align 4
  %9 = alloca ptr, align 8
  %10 = alloca ptr, align 8
  %11 = alloca ptr, align 8
  %12 = alloca i32, align 4
  %13 = alloca i32, align 4
  %14 = alloca ptr, align 8
  %15 = alloca i32, align 4
  %16 = alloca i32, align 4
  %17 = alloca i32, align 4
  %18 = alloca i32, align 4
  store ptr %0, ptr %9, align 8, !tbaa !41
  store ptr %1, ptr %10, align 8, !tbaa !28
  store ptr %2, ptr %11, align 8, !tbaa !13
  store i32 %3, ptr %12, align 4, !tbaa !16
  store i32 %4, ptr %13, align 4, !tbaa !16
  store ptr %5, ptr %14, align 8, !tbaa !13
  store i32 %6, ptr %15, align 4, !tbaa !16
  call void @llvm.lifetime.start.p0(i64 4, ptr %16) #12
  call void @llvm.lifetime.start.p0(i64 4, ptr %17) #12
  %19 = load ptr, ptr %9, align 8, !tbaa !41
  %20 = load ptr, ptr %10, align 8, !tbaa !28
  %21 = load ptr, ptr %11, align 8, !tbaa !13
  %22 = load i32, ptr %12, align 4, !tbaa !16
  %23 = load i32, ptr %13, align 4, !tbaa !16
  %24 = load ptr, ptr %14, align 8, !tbaa !13
  %25 = load i32, ptr %15, align 4, !tbaa !16
  %26 = call i32 @do_match_pathspec(ptr noundef %19, ptr noundef %20, ptr noundef %21, i32 noundef %22, i32 noundef %23, ptr noundef %24, i32 noundef %25)
  store i32 %26, ptr %16, align 4, !tbaa !16
  %27 = load ptr, ptr %10, align 8, !tbaa !28
  %28 = getelementptr inbounds nuw %struct.pathspec, ptr %27, i32 0, i32 2
  %29 = load i32, ptr %28, align 8, !tbaa !33
  %30 = and i32 %29, 32
  %31 = icmp ne i32 %30, 0
  br i1 %31, label %32, label %35

32:                                               ; preds = %7
  %33 = load i32, ptr %16, align 4, !tbaa !16
  %34 = icmp ne i32 %33, 0
  br i1 %34, label %37, label %35

35:                                               ; preds = %32, %7
  %36 = load i32, ptr %16, align 4, !tbaa !16
  store i32 %36, ptr %8, align 4
  store i32 1, ptr %18, align 4
  br label %54

37:                                               ; preds = %32
  %38 = load ptr, ptr %9, align 8, !tbaa !41
  %39 = load ptr, ptr %10, align 8, !tbaa !28
  %40 = load ptr, ptr %11, align 8, !tbaa !13
  %41 = load i32, ptr %12, align 4, !tbaa !16
  %42 = load i32, ptr %13, align 4, !tbaa !16
  %43 = load ptr, ptr %14, align 8, !tbaa !13
  %44 = load i32, ptr %15, align 4, !tbaa !16
  %45 = or i32 %44, 1
  %46 = call i32 @do_match_pathspec(ptr noundef %38, ptr noundef %39, ptr noundef %40, i32 noundef %41, i32 noundef %42, ptr noundef %43, i32 noundef %45)
  store i32 %46, ptr %17, align 4, !tbaa !16
  %47 = load i32, ptr %17, align 4, !tbaa !16
  %48 = icmp ne i32 %47, 0
  br i1 %48, label %49, label %50

49:                                               ; preds = %37
  br label %52

50:                                               ; preds = %37
  %51 = load i32, ptr %16, align 4, !tbaa !16
  br label %52

52:                                               ; preds = %50, %49
  %53 = phi i32 [ 0, %49 ], [ %51, %50 ]
  store i32 %53, ptr %8, align 4
  store i32 1, ptr %18, align 4
  br label %54

54:                                               ; preds = %52, %35
  call void @llvm.lifetime.end.p0(i64 4, ptr %17) #12
  call void @llvm.lifetime.end.p0(i64 4, ptr %16) #12
  %55 = load i32, ptr %8, align 4
  ret i32 %55
}

; Function Attrs: nounwind uwtable
define dso_local i32 @submodule_path_match(ptr noundef %0, ptr noundef %1, ptr noundef %2, ptr noundef %3) #0 {
  %5 = alloca ptr, align 8
  %6 = alloca ptr, align 8
  %7 = alloca ptr, align 8
  %8 = alloca ptr, align 8
  %9 = alloca i32, align 4
  store ptr %0, ptr %5, align 8, !tbaa !41
  store ptr %1, ptr %6, align 8, !tbaa !28
  store ptr %2, ptr %7, align 8, !tbaa !13
  store ptr %3, ptr %8, align 8, !tbaa !13
  call void @llvm.lifetime.start.p0(i64 4, ptr %9) #12
  %10 = load ptr, ptr %5, align 8, !tbaa !41
  %11 = load ptr, ptr %6, align 8, !tbaa !28
  %12 = load ptr, ptr %7, align 8, !tbaa !13
  %13 = load ptr, ptr %7, align 8, !tbaa !13
  %14 = call i64 @strlen(ptr noundef %13) #13
  %15 = trunc i64 %14 to i32
  %16 = load ptr, ptr %8, align 8, !tbaa !13
  %17 = call i32 @match_pathspec_with_flags(ptr noundef %10, ptr noundef %11, ptr noundef %12, i32 noundef %15, i32 noundef 0, ptr noundef %16, i32 noundef 6)
  store i32 %17, ptr %9, align 4, !tbaa !16
  %18 = load i32, ptr %9, align 4, !tbaa !16
  call void @llvm.lifetime.end.p0(i64 4, ptr %9) #12
  ret i32 %18
}