; Function Attrs: nounwind uwtable
define dso_local range(i32 0, 5) i32 @submodule_path_match(ptr noundef %0, ptr noundef readonly captures(none) %1, ptr noundef %2, ptr noundef %3) local_unnamed_addr #0 {
  %5 = tail call i64 @strlen(ptr noundef nonnull dereferenceable(1) %2) #28
  %6 = trunc i64 %5 to i32
  %7 = tail call fastcc i32 @do_match_pathspec(ptr noundef %0, ptr noundef readonly %1, ptr noundef nonnull %2, i32 noundef %6, i32 noundef 0, ptr noundef %3, i32 noundef 6)
  %8 = getelementptr inbounds nuw i8, ptr %1, i64 8
  %9 = load i32, ptr %8, align 8, !tbaa !23
  %10 = and i32 %9, 32
  %11 = icmp ne i32 %10, 0
  %12 = icmp ne i32 %7, 0
  %or.cond.i = select i1 %11, i1 %12, i1 false
  br i1 %or.cond.i, label %13, label %match_pathspec_with_flags.exit

13:                                               ; preds = %4
  %14 = tail call fastcc i32 @do_match_pathspec(ptr noundef %0, ptr noundef nonnull readonly %1, ptr noundef nonnull %2, i32 noundef %6, i32 noundef 0, ptr noundef %3, i32 noundef 7)
  %.not.i = icmp eq i32 %14, 0
  %15 = select i1 %.not.i, i32 %7, i32 0
  br label %match_pathspec_with_flags.exit

match_pathspec_with_flags.exit:                   ; preds = %4, %13
  %.0.i = phi i32 [ %15, %13 ], [ %7, %4 ]
  ret i32 %.0.i
}